; Function Attrs: nounwind uwtable
define ptr @l_Lean_Expr_app1_x3f___boxed(ptr noundef %0, ptr noundef %1) local_unnamed_addr #0 {
  %3 = tail call zeroext i8 @l_Lean_Expr_isAppOfArity(ptr noundef %0, ptr noundef %1, ptr noundef nonnull inttoptr (i64 3 to ptr)) #4
  %4 = icmp eq i8 %3, 0
  br i1 %4, label %l_Lean_Expr_app1_x3f.exit, label %5

5:                                                ; preds = %2
  %6 = tail call ptr @l_Lean_Expr_appArg_x21(ptr noundef %0) #4
  tail call void @lean_inc_heartbeat() #4
  %7 = tail call noalias ptr @mi_malloc_small(i64 noundef 16) #4
  %8 = icmp eq ptr %7, null
  br i1 %8, label %9, label %lean_alloc_ctor.exit.i

9:                                                ; preds = %5
  tail call void @lean_internal_panic_out_of_memory() #5
  unreachable

lean_alloc_ctor.exit.i:                           ; preds = %5
  %10 = getelementptr inbounds nuw i8, ptr %7, i64 4
  store i32 1, ptr %7, align 4, !tbaa !8
  store i32 16842768, ptr %10, align 4
  %11 = getelementptr inbounds nuw i8, ptr %7, i64 8
  store ptr %6, ptr %11, align 8, !tbaa !4
  br label %l_Lean_Expr_app1_x3f.exit

l_Lean_Expr_app1_x3f.exit:                        ; preds = %2, %lean_alloc_ctor.exit.i
  %.0.i = phi ptr [ %7, %lean_alloc_ctor.exit.i ], [ inttoptr (i64 1 to ptr), %2 ]
  %12 = ptrtoint ptr %1 to i64
  %13 = and i64 %12, 1
  %.not = icmp eq i64 %13, 0
  br i1 %.not, label %14, label %lean_dec.exit5

14:                                               ; preds = %l_Lean_Expr_app1_x3f.exit
  %15 = load i32, ptr %1, align 4, !tbaa !8
  %16 = icmp sgt i32 %15, 1
  br i1 %16, label %17, label %19, !prof !11

17:                                               ; preds = %14
  %18 = add nsw i32 %15, -1
  store i32 %18, ptr %1, align 4, !tbaa !8
  br label %lean_dec.exit5

19:                                               ; preds = %14
  %.not.i = icmp eq i32 %15, 0
  br i1 %.not.i, label %lean_dec.exit5, label %20

20:                                               ; preds = %19
  tail call void @lean_dec_ref_cold(ptr noundef nonnull %1) #4
  br label %lean_dec.exit5

lean_dec.exit5:                                   ; preds = %20, %19, %17, %l_Lean_Expr_app1_x3f.exit
  %21 = ptrtoint ptr %0 to i64
  %22 = and i64 %21, 1
  %.not8 = icmp eq i64 %22, 0
  br i1 %.not8, label %23, label %lean_dec.exit

23:                                               ; preds = %lean_dec.exit5
  %24 = load i32, ptr %0, align 4, !tbaa !8
  %25 = icmp sgt i32 %24, 1
  br i1 %25, label %26, label %28, !prof !11

26:                                               ; preds = %23
  %27 = add nsw i32 %24, -1
  store i32 %27, ptr %0, align 4, !tbaa !8
  br label %lean_dec.exit

28:                                               ; preds = %23
  %.not.i6 = icmp eq i32 %24, 0
  br i1 %.not.i6, label %lean_dec.exit, label %29

29:                                               ; preds = %28
  tail call void @lean_dec_ref_cold(ptr noundef nonnull %0) #4
  br label %lean_dec.exit

lean_dec.exit:                                    ; preds = %29, %28, %26, %lean_dec.exit5
  ret ptr %.0.i
}